(lp0
ccopy_reg
_reconstructor
p1
(csmarttypes.model.twitter_credentials
TwitterCredentials
p2
c__builtin__
object
p3
Ntp4
Rp5
(dp6
S'access_key'
p7
V44984826-Dqdy6U67WnkAjXGNyuPN8b93fT0VZUAFywczsexLI
p8
sS'modifieddate'
p9
cdatetime
datetime
p10
(S'\x07\xdb\n\x1f\n%\x1f\x06\xa0\x07'
p11
tp12
Rp13
sS'createddate'
p14
g10
(S'\x07\xdb\n\x1f\n%\x10\r\x1d\xff'
p15
tp16
Rp17
sS'access_secret'
p18
V5pAGEleqBeBmeVnt1pIkeC8HVjRYNmCneVPtfhXokA
p19
sS'twitter_id'
p20
V44984826
p21
sS'email'
p22
Vkevinroth82@gmail.com
p23
sbag1
(g2
g3
Ntp24
Rp25
(dp26
g7
V28858803-j777EcAgGQdhDn0ZU7jmxzNyYvLFqTIxxhaaRv4Wk
p27
sg9
g10
(S'\x07\xdb\n\x1f\x0c\x0e\x11\x0e\x98\xb4'
p28
tp29
Rp30
sg14
g10
(S'\x07\xdb\n\x1f\x0c\r:\x00d\xa2'
p31
tp32
Rp33
sg18
VYZonohRZHIhJ03K5iVrj1XLjNCvDDpg0KWxd879E
p34
sg20
V28858803
p35
sg22
Vmichele.silva@gmail.com
p36
sbag1
(g2
g3
Ntp37
Rp38
(dp39
g7
V14816320-mrMiWr50ZKHg6rdGeOdOpskvQgaVcahnFaMPRLDHJ
p40
sg9
g10
(S'\x07\xdb\x0b\x07\x15\x1c%\x0e\xa1\xad'
p41
tp42
Rp43
sg14
g10
(S'\x07\xdb\n\x1e\x08\x13\t\x0b\x90\t'
p44
tp45
Rp46
sg18
VxxWvTRciOGwilp5NdAGPB5jorxczUQBypzBX6RYE
p47
sg20
V14816320
p48
sg22
Vtimmyt@smarttypes.org
p49
sbag1
(g2
g3
Ntp50
Rp51
(dp52
g7
V50623580-BQKwXrNIKkL4geFNG6s4AxyYrtjTtBnEIVGshNC4
p53
sg9
g10
(S'\x07\xdb\x0b\x08\x14.4\x08<\xd3'
p54
tp55
Rp56
sg14
g10
(S'\x07\xdb\x0b\x01\x07\x188\x0f\x19\xa8'
p57
tp58
Rp59
sg18
VEassMcVK2bLo7vveor69L3Eqpeayx114MXxf7IX1o
p60
sg20
V50623580
p61
sg22
Nsbag1
(g2
g3
Ntp62
Rp63
(dp64
g7
V46343231-gZRaKJO6KQNEMnhmBn3TteQNKDHYLOTjWtF1WHv3Z
p65
sg9
g10
(S'\x07\xdb\x0b\t\t*-\x0f\x18:'
p66
tp67
Rp68
sg14
g10
(S'\x07\xdb\x0b\t\t*\x07\tO\x82'
p69
tp70
Rp71
sg18
Ve8fm6nNm6D7lQ7t2p4zBUvGLVdKB6PJq7iTJvXV6Hzg
p72
sg20
V46343231
p73
sg22
Vervler@hotmail.com
p74
sbag1
(g2
g3
Ntp75
Rp76
(dp77
g7
V16067035-pabuI4yoi9817Ket2ISyPkfKSIlAmKJbOvg5Fww0M
p78
sg9
g10
(S'\x07\xdb\x0c\x07\t\x063\x06\x99\xfe'
p79
tp80
Rp81
sg14
g10
(S'\x07\xdb\x0c\x07\t\x06)\x06\\\xc5'
p82
tp83
Rp84
sg18
VG5cRySoHEl9WBL184TJibXnkM5fFYYinXyGXoyiuF6U
p85
sg20
V16067035
p86
sg22
Volivier.grisel@ensta.org
p87
sbag1
(g2
g3
Ntp88
Rp89
(dp90
g7
V15323504-8S04ZzDo3VQ1W8rPDpnOZmhnvTNbwH5IgU3SRaSyk
p91
sg9
g10
(S'\x07\xdb\x0c\x07\x141%\x0bs\x80'
p92
tp93
Rp94
sg14
g10
(S'\x07\xdb\x0c\x07\x141\x14\n\x8d\xa6'
p95
tp96
Rp97
sg18
VHXChjT1T4MB04uNba9WFqhLOFVpkyrQwe0W6Kmurg
p98
sg20
V15323504
p99
sg22
Vsnikolov2@gmail.com
p100
sbag1
(g2
g3
Ntp101
Rp102
(dp103
g7
V133550954-Nw4stvUdavIvM6aTf2rzrxabO4a9fjwBqsKdQQus
p104
sg9
g10
(S'\x07\xdb\x0c\x08\x06\x11)\x08\xb2\xe7'
p105
tp106
Rp107
sg14
g10
(S'\x07\xdb\x0c\x08\x06\x11\x1a\x04\x1f\x0b'
p108
tp109
Rp110
sg18
VmdDH6BVlO8k1USRu3iraL1IVo3ckdfkW0NtUm7N9sU
p111
sg20
V133550954
p112
sg22
Vsatyadileep@gmail.com
p113
sbag1
(g2
g3
Ntp114
Rp115
(dp116
g7
V29112571-wn7RA0196TMVXHQ1LtTCYdlksM3KyYSNl1GQNjX9U
p117
sg9
g10
(S'\x07\xdb\x0c\r\x13\x1d*\x08s\xbe'
p118
tp119
Rp120
sg14
g10
(S'\x07\xdb\x0c\r\x13\x1c3\t\xe6Q'
p121
tp122
Rp123
sg18
ViTKX7RcwVLM4xzXyMkb0x1PmyKTNFmGhQHMGCNVQXHM
p124
sg20
V29112571
p125
sg22
Vyocoach@yahoo.com
p126
sbag1
(g2
g3
Ntp127
Rp128
(dp129
g7
V5409802-rab2tcpIbinW7xfAXIMYaZRLEtU6OUzlwXkgXCCb8A
p130
sg9
g10
(S'\x07\xdb\x0c\x0f\x14\x17\x1c\x04\xd2\xf1'
p131
tp132
Rp133
sg14
g10
(S'\x07\xdb\x0c\x0f\x14\x17\x1c\x04\xd2\xf1'
p134
tp135
Rp136
sg18
V1DQQLMczfVsgb4m3drqoRZWJyiv8PcSWvrk47kVvvg
p137
sg20
V5409802
p138
sg22
Nsba.